#include <math.h>
#include <stdio.h>
#include <stdlib.h>
#include <string.h>
#include <iostream>
using namespace std;

int judge(int x)
{
    if(x%7==0) return 1;
    int temp=10;
    while(x>0)
    {
     if(x%temp==7) return 1;
      x=x/temp;
     }
     return 0;
     }
     
int main()
{
    int n;
    cin>>n;
    int a[100];
    int len;len=0;
    for(int i=0;i<=n;i++)
    {
     if(judge(i)==0)
      a[len++]=i;}
    int sum=0;
    for(int j=0;j<len;j++)
    {
     sum=sum+a[j]*a[j];}
    cout<<sum;
    return 0;
    }