; ModuleID = 'source-C-CXX/29/1286.cpp'
source_filename = "source-C-CXX/29/1286.cpp"
target datalayout = "e-m:e-p270:32:32-p271:32:32-p272:64:64-i64:64-f80:128-n8:16:32:64-S128"
target triple = "x86_64-pc-linux-gnu"

%"class.std::ios_base::Init" = type { i8 }
%"class.std::basic_istream" = type { i32 (...)**, i64, %"class.std::basic_ios" }
%"class.std::basic_ios" = type { %"class.std::ios_base", %"class.std::basic_ostream"*, i8, i8, %"class.std::basic_streambuf"*, %"class.std::ctype"*, %"class.std::num_put"*, %"class.std::num_get"* }
%"class.std::ios_base" = type { i32 (...)**, i64, i64, i32, i32, i32, %"struct.std::ios_base::_Callback_list"*, %"struct.std::ios_base::_Words", [8 x %"struct.std::ios_base::_Words"], i32, %"struct.std::ios_base::_Words"*, %"class.std::locale" }
%"struct.std::ios_base::_Callback_list" = type { %"struct.std::ios_base::_Callback_list"*, void (i32, %"class.std::ios_base"*, i32)*, i32, i32 }
%"struct.std::ios_base::_Words" = type { i8*, i64 }
%"class.std::locale" = type { %"class.std::locale::_Impl"* }
%"class.std::locale::_Impl" = type { i32, %"class.std::locale::facet"**, i64, %"class.std::locale::facet"**, i8** }
%"class.std::locale::facet" = type <{ i32 (...)**, i32, [4 x i8] }>
%"class.std::basic_ostream" = type { i32 (...)**, %"class.std::basic_ios" }
%"class.std::basic_streambuf" = type { i32 (...)**, i8*, i8*, i8*, i8*, i8*, i8*, %"class.std::locale" }
%"class.std::ctype" = type <{ %"class.std::locale::facet.base", [4 x i8], %struct.__locale_struct*, i8, [7 x i8], i32*, i32*, i16*, i8, [256 x i8], [256 x i8], i8, [6 x i8] }>
%"class.std::locale::facet.base" = type <{ i32 (...)**, i32 }>
%struct.__locale_struct = type { [13 x %struct.__locale_data*], i16*, i32*, i32*, [13 x i8*] }
%struct.__locale_data = type opaque
%"class.std::num_put" = type { %"class.std::locale::facet.base", [4 x i8] }
%"class.std::num_get" = type { %"class.std::locale::facet.base", [4 x i8] }

@_ZStL8__ioinit = internal global %"class.std::ios_base::Init" zeroinitializer, align 1
@__dso_handle = external hidden global i8
@_ZSt3cin = external global %"class.std::basic_istream", align 8
@_ZSt4cout = external global %"class.std::basic_ostream", align 8
@llvm.global_ctors = appending global [1 x { i32, void ()*, i8* }] [{ i32, void ()*, i8* } { i32 65535, void ()* @_GLOBAL__sub_I_1286.cpp, i8* null }]

declare void @_ZNSt8ios_base4InitC1Ev(%"class.std::ios_base::Init"* nonnull align 1 dereferenceable(1)) unnamed_addr #0

; Function Attrs: nounwind
declare void @_ZNSt8ios_base4InitD1Ev(%"class.std::ios_base::Init"* nonnull align 1 dereferenceable(1)) unnamed_addr #1

; Function Attrs: nofree nounwind
declare i32 @__cxa_atexit(void (i8*)*, i8*, i8*) local_unnamed_addr #2

; Function Attrs: mustprogress nofree norecurse nosync nounwind readnone sspstrong uwtable willreturn
define dso_local i32 @_Z5judgei(i32 %0) local_unnamed_addr #3 {
  %2 = srem i32 %0, 7
  %3 = icmp eq i32 %2, 0
  br i1 %3, label %13, label %4

4:                                                ; preds = %1
  %5 = icmp sgt i32 %0, 0
  br i1 %5, label %6, label %13

6:                                                ; preds = %4, %11
  %7 = phi i32 [ %9, %11 ], [ %0, %4 ]
  %8 = urem i32 %7, 10
  %9 = udiv i32 %7, 10
  %10 = icmp eq i32 %8, 7
  br i1 %10, label %13, label %11

11:                                               ; preds = %6
  %12 = icmp ult i32 %7, 10
  br i1 %12, label %13, label %6, !llvm.loop !5

13:                                               ; preds = %11, %6, %4, %1
  %14 = phi i32 [ 1, %1 ], [ 0, %4 ], [ 0, %11 ], [ 1, %6 ]
  ret i32 %14
}

; Function Attrs: argmemonly mustprogress nofree nosync nounwind willreturn
declare void @llvm.lifetime.start.p0i8(i64 immarg, i8* nocapture) #4

; Function Attrs: argmemonly mustprogress nofree nosync nounwind willreturn
declare void @llvm.lifetime.end.p0i8(i64 immarg, i8* nocapture) #4

; Function Attrs: mustprogress norecurse sspstrong uwtable
define dso_local i32 @main() local_unnamed_addr #5 {
  %1 = alloca i32, align 4
  %2 = alloca [100 x i32], align 16
  %3 = bitcast i32* %1 to i8*
  call void @llvm.lifetime.start.p0i8(i64 4, i8* nonnull %3) #8
  %4 = call nonnull align 8 dereferenceable(16) %"class.std::basic_istream"* @_ZNSirsERi(%"class.std::basic_istream"* nonnull align 8 dereferenceable(16) @_ZSt3cin, i32* nonnull align 4 dereferenceable(4) %1)
  %5 = bitcast [100 x i32]* %2 to i8*
  call void @llvm.lifetime.start.p0i8(i64 400, i8* nonnull %5) #8
  %6 = load i32, i32* %1, align 4, !tbaa !7
  %7 = icmp slt i32 %6, 0
  br i1 %7, label %100, label %78

8:                                                ; preds = %96
  %9 = icmp sgt i32 %97, 0
  br i1 %9, label %10, label %100

10:                                               ; preds = %8
  %11 = zext i32 %97 to i64
  %12 = icmp ult i32 %97, 8
  br i1 %12, label %75, label %13

13:                                               ; preds = %10
  %14 = and i64 %11, 4294967288
  %15 = add nsw i64 %14, -8
  %16 = lshr exact i64 %15, 3
  %17 = add nuw nsw i64 %16, 1
  %18 = and i64 %17, 1
  %19 = icmp eq i64 %15, 0
  br i1 %19, label %51, label %20

20:                                               ; preds = %13
  %21 = and i64 %17, 4611686018427387902
  br label %22

22:                                               ; preds = %22, %20
  %23 = phi i64 [ 0, %20 ], [ %48, %22 ]
  %24 = phi <4 x i32> [ zeroinitializer, %20 ], [ %46, %22 ]
  %25 = phi <4 x i32> [ zeroinitializer, %20 ], [ %47, %22 ]
  %26 = phi i64 [ %21, %20 ], [ %49, %22 ]
  %27 = getelementptr inbounds [100 x i32], [100 x i32]* %2, i64 0, i64 %23
  %28 = bitcast i32* %27 to <4 x i32>*
  %29 = load <4 x i32>, <4 x i32>* %28, align 16, !tbaa !7
  %30 = getelementptr inbounds i32, i32* %27, i64 4
  %31 = bitcast i32* %30 to <4 x i32>*
  %32 = load <4 x i32>, <4 x i32>* %31, align 16, !tbaa !7
  %33 = mul nsw <4 x i32> %29, %29
  %34 = mul nsw <4 x i32> %32, %32
  %35 = add <4 x i32> %33, %24
  %36 = add <4 x i32> %34, %25
  %37 = or i64 %23, 8
  %38 = getelementptr inbounds [100 x i32], [100 x i32]* %2, i64 0, i64 %37
  %39 = bitcast i32* %38 to <4 x i32>*
  %40 = load <4 x i32>, <4 x i32>* %39, align 16, !tbaa !7
  %41 = getelementptr inbounds i32, i32* %38, i64 4
  %42 = bitcast i32* %41 to <4 x i32>*
  %43 = load <4 x i32>, <4 x i32>* %42, align 16, !tbaa !7
  %44 = mul nsw <4 x i32> %40, %40
  %45 = mul nsw <4 x i32> %43, %43
  %46 = add <4 x i32> %44, %35
  %47 = add <4 x i32> %45, %36
  %48 = add nuw i64 %23, 16
  %49 = add i64 %26, -2
  %50 = icmp eq i64 %49, 0
  br i1 %50, label %51, label %22, !llvm.loop !11

51:                                               ; preds = %22, %13
  %52 = phi <4 x i32> [ undef, %13 ], [ %46, %22 ]
  %53 = phi <4 x i32> [ undef, %13 ], [ %47, %22 ]
  %54 = phi i64 [ 0, %13 ], [ %48, %22 ]
  %55 = phi <4 x i32> [ zeroinitializer, %13 ], [ %46, %22 ]
  %56 = phi <4 x i32> [ zeroinitializer, %13 ], [ %47, %22 ]
  %57 = icmp eq i64 %18, 0
  br i1 %57, label %69, label %58

58:                                               ; preds = %51
  %59 = getelementptr inbounds [100 x i32], [100 x i32]* %2, i64 0, i64 %54
  %60 = bitcast i32* %59 to <4 x i32>*
  %61 = load <4 x i32>, <4 x i32>* %60, align 16, !tbaa !7
  %62 = getelementptr inbounds i32, i32* %59, i64 4
  %63 = bitcast i32* %62 to <4 x i32>*
  %64 = load <4 x i32>, <4 x i32>* %63, align 16, !tbaa !7
  %65 = mul nsw <4 x i32> %64, %64
  %66 = add <4 x i32> %65, %56
  %67 = mul nsw <4 x i32> %61, %61
  %68 = add <4 x i32> %67, %55
  br label %69

69:                                               ; preds = %51, %58
  %70 = phi <4 x i32> [ %52, %51 ], [ %68, %58 ]
  %71 = phi <4 x i32> [ %53, %51 ], [ %66, %58 ]
  %72 = add <4 x i32> %71, %70
  %73 = call i32 @llvm.vector.reduce.add.v4i32(<4 x i32> %72)
  %74 = icmp eq i64 %14, %11
  br i1 %74, label %100, label %75

75:                                               ; preds = %10, %69
  %76 = phi i64 [ 0, %10 ], [ %14, %69 ]
  %77 = phi i32 [ 0, %10 ], [ %73, %69 ]
  br label %103

78:                                               ; preds = %0, %96
  %79 = phi i32 [ %98, %96 ], [ 0, %0 ]
  %80 = phi i32 [ %97, %96 ], [ 0, %0 ]
  %81 = urem i32 %79, 7
  %82 = icmp eq i32 %81, 0
  br i1 %82, label %96, label %83

83:                                               ; preds = %78
  %84 = icmp eq i32 %79, 0
  br i1 %84, label %92, label %85

85:                                               ; preds = %83, %90
  %86 = phi i32 [ %88, %90 ], [ %79, %83 ]
  %87 = urem i32 %86, 10
  %88 = udiv i32 %86, 10
  %89 = icmp eq i32 %87, 7
  br i1 %89, label %96, label %90

90:                                               ; preds = %85
  %91 = icmp ult i32 %86, 10
  br i1 %91, label %92, label %85, !llvm.loop !5

92:                                               ; preds = %90, %83
  %93 = add nsw i32 %80, 1
  %94 = sext i32 %80 to i64
  %95 = getelementptr inbounds [100 x i32], [100 x i32]* %2, i64 0, i64 %94
  store i32 %79, i32* %95, align 4, !tbaa !7
  br label %96

96:                                               ; preds = %85, %78, %92
  %97 = phi i32 [ %93, %92 ], [ %80, %78 ], [ %80, %85 ]
  %98 = add nuw i32 %79, 1
  %99 = icmp eq i32 %79, %6
  br i1 %99, label %8, label %78, !llvm.loop !13

100:                                              ; preds = %103, %69, %0, %8
  %101 = phi i32 [ 0, %8 ], [ 0, %0 ], [ %73, %69 ], [ %109, %103 ]
  %102 = call nonnull align 8 dereferenceable(8) %"class.std::basic_ostream"* @_ZNSolsEi(%"class.std::basic_ostream"* nonnull align 8 dereferenceable(8) @_ZSt4cout, i32 %101)
  call void @llvm.lifetime.end.p0i8(i64 400, i8* nonnull %5) #8
  call void @llvm.lifetime.end.p0i8(i64 4, i8* nonnull %3) #8
  ret i32 0

103:                                              ; preds = %75, %103
  %104 = phi i64 [ %110, %103 ], [ %76, %75 ]
  %105 = phi i32 [ %109, %103 ], [ %77, %75 ]
  %106 = getelementptr inbounds [100 x i32], [100 x i32]* %2, i64 0, i64 %104
  %107 = load i32, i32* %106, align 4, !tbaa !7
  %108 = mul nsw i32 %107, %107
  %109 = add nuw nsw i32 %108, %105
  %110 = add nuw nsw i64 %104, 1
  %111 = icmp eq i64 %110, %11
  br i1 %111, label %100, label %103, !llvm.loop !14
}

declare nonnull align 8 dereferenceable(16) %"class.std::basic_istream"* @_ZNSirsERi(%"class.std::basic_istream"* nonnull align 8 dereferenceable(16), i32* nonnull align 4 dereferenceable(4)) local_unnamed_addr #0

declare nonnull align 8 dereferenceable(8) %"class.std::basic_ostream"* @_ZNSolsEi(%"class.std::basic_ostream"* nonnull align 8 dereferenceable(8), i32) local_unnamed_addr #0

; Function Attrs: sspstrong uwtable
define internal void @_GLOBAL__sub_I_1286.cpp() #6 section ".text.startup" {
  tail call void @_ZNSt8ios_base4InitC1Ev(%"class.std::ios_base::Init"* nonnull align 1 dereferenceable(1) @_ZStL8__ioinit)
  %1 = tail call i32 @__cxa_atexit(void (i8*)* bitcast (void (%"class.std::ios_base::Init"*)* @_ZNSt8ios_base4InitD1Ev to void (i8*)*), i8* getelementptr inbounds (%"class.std::ios_base::Init", %"class.std::ios_base::Init"* @_ZStL8__ioinit, i64 0, i32 0), i8* nonnull @__dso_handle) #8
  ret void
}

; Function Attrs: nofree nosync nounwind readnone willreturn
declare i32 @llvm.vector.reduce.add.v4i32(<4 x i32>) #7


!llvm.module.flags = !{!0, !1, !2, !3}
!llvm.ident = !{!4}

!0 = !{i32 1, !"wchar_size", i32 4}
!1 = !{i32 7, !"PIC Level", i32 2}
!2 = !{i32 7, !"PIE Level", i32 2}
!3 = !{i32 7, !"uwtable", i32 1}
!4 = !{!"clang version 13.0.0"}
!5 = distinct !{!5, !6}
!6 = !{!"llvm.loop.mustprogress"}
!7 = !{!8, !8, i64 0}
!8 = !{!"int", !9, i64 0}
!9 = !{!"omnipotent char", !10, i64 0}
!10 = !{!"Simple C++ TBAA"}
!11 = distinct !{!11, !6, !12}
!12 = !{!"llvm.loop.isvectorized", i32 1}
!13 = distinct !{!13, !6}
!14 = distinct !{!14, !6, !15, !12}
!15 = !{!"llvm.loop.unroll.runtime.disable"}
